; Function Attrs: mustprogress nofree nounwind willreturn memory(read, inaccessiblemem: none) uwtable
define range(i32 -2147483647, -2147483648) i32 @pmix_mca_base_component_compare_priority(ptr noundef readonly captures(none) %0, ptr noundef readonly captures(none) %1) local_unnamed_addr #0 {
  %3 = getelementptr inbounds nuw i8, ptr %0, i64 152
  %4 = load i32, ptr %3, align 8, !tbaa !3
  %5 = getelementptr inbounds nuw i8, ptr %1, i64 152
  %6 = load i32, ptr %5, align 8, !tbaa !3
  %7 = icmp sgt i32 %4, %6
  br i1 %7, label %pmix_mca_base_component_compare.exit, label %8

8:                                                ; preds = %2
  %9 = icmp slt i32 %4, %6
  br i1 %9, label %pmix_mca_base_component_compare.exit, label %10

10:                                               ; preds = %8
  %11 = getelementptr inbounds nuw i8, ptr %0, i64 144
  %12 = load ptr, ptr %11, align 8, !tbaa !16
  %13 = getelementptr inbounds nuw i8, ptr %1, i64 144
  %14 = load ptr, ptr %13, align 8, !tbaa !16
  %15 = getelementptr inbounds nuw i8, ptr %12, i64 40
  %16 = getelementptr inbounds nuw i8, ptr %14, i64 40
  %17 = tail call i32 @strncmp(ptr noundef nonnull readonly dereferenceable(1) %15, ptr noundef nonnull readonly dereferenceable(1) %16, i64 noundef 31) #6
  %.not.i = icmp eq i32 %17, 0
  br i1 %.not.i, label %20, label %18

18:                                               ; preds = %10
  %19 = sub nsw i32 0, %17
  br label %pmix_mca_base_component_compare.exit

20:                                               ; preds = %10
  %21 = getelementptr inbounds nuw i8, ptr %12, i64 84
  %22 = getelementptr inbounds nuw i8, ptr %14, i64 84
  %23 = tail call i32 @strncmp(ptr noundef nonnull readonly dereferenceable(1) %21, ptr noundef nonnull readonly dereferenceable(1) %22, i64 noundef 63) #6
  %.not28.i = icmp eq i32 %23, 0
  br i1 %.not28.i, label %26, label %24

24:                                               ; preds = %20
  %25 = sub nsw i32 0, %23
  br label %pmix_mca_base_component_compare.exit

26:                                               ; preds = %20
  %27 = getelementptr inbounds nuw i8, ptr %12, i64 148
  %28 = load i32, ptr %27, align 4, !tbaa !17
  %29 = getelementptr inbounds nuw i8, ptr %14, i64 148
  %30 = load i32, ptr %29, align 4, !tbaa !17
  %31 = icmp sgt i32 %28, %30
  br i1 %31, label %pmix_mca_base_component_compare.exit, label %32

32:                                               ; preds = %26
  %33 = icmp slt i32 %28, %30
  br i1 %33, label %pmix_mca_base_component_compare.exit, label %34

34:                                               ; preds = %32
  %35 = getelementptr inbounds nuw i8, ptr %12, i64 152
  %36 = load i32, ptr %35, align 8, !tbaa !19
  %37 = getelementptr inbounds nuw i8, ptr %14, i64 152
  %38 = load i32, ptr %37, align 8, !tbaa !19
  %39 = icmp sgt i32 %36, %38
  br i1 %39, label %pmix_mca_base_component_compare.exit, label %40

40:                                               ; preds = %34
  %41 = icmp slt i32 %36, %38
  br i1 %41, label %pmix_mca_base_component_compare.exit, label %42

42:                                               ; preds = %40
  %43 = getelementptr inbounds nuw i8, ptr %12, i64 156
  %44 = load i32, ptr %43, align 4, !tbaa !20
  %45 = getelementptr inbounds nuw i8, ptr %14, i64 156
  %46 = load i32, ptr %45, align 4, !tbaa !20
  %47 = icmp sgt i32 %44, %46
  br i1 %47, label %pmix_mca_base_component_compare.exit, label %48

48:                                               ; preds = %42
  %49 = icmp slt i32 %44, %46
  %..i = zext i1 %49 to i32
  br label %pmix_mca_base_component_compare.exit

pmix_mca_base_component_compare.exit:             ; preds = %48, %42, %40, %34, %32, %26, %24, %18, %8, %2
  %.0 = phi i32 [ -1, %2 ], [ 1, %8 ], [ %19, %18 ], [ %25, %24 ], [ -1, %26 ], [ 1, %32 ], [ -1, %34 ], [ 1, %40 ], [ -1, %42 ], [ %..i, %48 ]
  ret i32 %.0
}